target datalayout = "e-m:e-p270:32:32-p271:32:32-p272:64:64-i64:64-i128:128-f80:128-n8:16:32:64-S128"
target triple = "x86_64-pc-linux-gnu"

%struct.paramType = type { i32, ptr, ptr, i32 }
%class.Scheduler = type { [200 x %"struct.Scheduler::handType"], [200 x %"struct.Scheduler::groupType"], i32, i32, %"struct.std::atomic", [6 x [200 x %"struct.Scheduler::listType"]], [200 x %"struct.Scheduler::sortType"], i32, %"class.std::vector", %"class.std::vector", %"class.std::vector", i32, i32, %"class.std::vector", %"class.std::vector.0", %class.Timer }
%"struct.Scheduler::handType" = type { i32, i32, [4 x [4 x i32]], i32, i32, i32, i32, i32, i32, i32, i32, i32, i32 }
%"struct.Scheduler::groupType" = type { i32, i32, i32, i32, i32, i32 }
%"struct.std::atomic" = type { %"struct.std::__atomic_base" }
%"struct.std::__atomic_base" = type { i32 }
%"struct.Scheduler::listType" = type { i32, i32, i32 }
%"struct.Scheduler::sortType" = type { i32, i32 }
%"class.std::vector" = type { %"struct.std::_Vector_base" }
%"struct.std::_Vector_base" = type { %"struct.std::_Vector_base<int, std::allocator<int>>::_Vector_impl" }
%"struct.std::_Vector_base<int, std::allocator<int>>::_Vector_impl" = type { %"struct.std::_Vector_base<int, std::allocator<int>>::_Vector_impl_data" }
%"struct.std::_Vector_base<int, std::allocator<int>>::_Vector_impl_data" = type { ptr, ptr, ptr }
%"class.std::vector.0" = type { %"struct.std::_Vector_base.1" }
%"struct.std::_Vector_base.1" = type { %"struct.std::_Vector_base<Timer, std::allocator<Timer>>::_Vector_impl" }
%"struct.std::_Vector_base<Timer, std::allocator<Timer>>::_Vector_impl" = type { %"struct.std::_Vector_base<Timer, std::allocator<Timer>>::_Vector_impl_data" }
%"struct.std::_Vector_base<Timer, std::allocator<Timer>>::_Vector_impl_data" = type { ptr, ptr, ptr }
%class.Timer = type { %"class.std::__cxx11::basic_string", i32, i64, i64, %"class.std::chrono::time_point", i64 }
%"class.std::__cxx11::basic_string" = type { %"struct.std::__cxx11::basic_string<char>::_Alloc_hider", i64, %union.anon }
%"struct.std::__cxx11::basic_string<char>::_Alloc_hider" = type { ptr }
%union.anon = type { i64, [8 x i8] }
%"class.std::chrono::time_point" = type { %"class.std::chrono::duration" }
%"class.std::chrono::duration" = type { i64 }
%class.System = type { i32, i32, i32, i32, i32, i32, %"class.std::vector.8", %"class.std::vector.12", %"class.std::vector.17", %"class.std::vector.22", %"class.std::vector.27", %"class.std::vector.32", ptr, ptr }
%"class.std::vector.8" = type { %"struct.std::_Bvector_base" }
%"struct.std::_Bvector_base" = type { %"struct.std::_Bvector_base<std::allocator<bool>>::_Bvector_impl" }
%"struct.std::_Bvector_base<std::allocator<bool>>::_Bvector_impl" = type { %"struct.std::_Bvector_base<std::allocator<bool>>::_Bvector_impl_data" }
%"struct.std::_Bvector_base<std::allocator<bool>>::_Bvector_impl_data" = type { %"struct.std::_Bit_iterator", %"struct.std::_Bit_iterator", ptr }
%"struct.std::_Bit_iterator" = type { %"struct.std::_Bit_iterator_base.base", [4 x i8] }
%"struct.std::_Bit_iterator_base.base" = type <{ ptr, i32 }>
%"class.std::vector.12" = type { %"struct.std::_Vector_base.13" }
%"struct.std::_Vector_base.13" = type { %"struct.std::_Vector_base<void (*)(int), std::allocator<void (*)(int)>>::_Vector_impl" }
%"struct.std::_Vector_base<void (*)(int), std::allocator<void (*)(int)>>::_Vector_impl" = type { %"struct.std::_Vector_base<void (*)(int), std::allocator<void (*)(int)>>::_Vector_impl_data" }
%"struct.std::_Vector_base<void (*)(int), std::allocator<void (*)(int)>>::_Vector_impl_data" = type { ptr, ptr, ptr }
%"class.std::vector.17" = type { %"struct.std::_Vector_base.18" }
%"struct.std::_Vector_base.18" = type { %"struct.std::_Vector_base<void (*)(const boards &, std::vector<int> &, std::vector<int> &), std::allocator<void (*)(const boards &, std::vector<int> &, std::vector<int> &)>>::_Vector_impl" }
%"struct.std::_Vector_base<void (*)(const boards &, std::vector<int> &, std::vector<int> &), std::allocator<void (*)(const boards &, std::vector<int> &, std::vector<int> &)>>::_Vector_impl" = type { %"struct.std::_Vector_base<void (*)(const boards &, std::vector<int> &, std::vector<int> &), std::allocator<void (*)(const boards &, std::vector<int> &, std::vector<int> &)>>::_Vector_impl_data" }
%"struct.std::_Vector_base<void (*)(const boards &, std::vector<int> &, std::vector<int> &), std::allocator<void (*)(const boards &, std::vector<int> &, std::vector<int> &)>>::_Vector_impl_data" = type { ptr, ptr, ptr }
%"class.std::vector.22" = type { %"struct.std::_Vector_base.23" }
%"struct.std::_Vector_base.23" = type { %"struct.std::_Vector_base<void (*)(int, int), std::allocator<void (*)(int, int)>>::_Vector_impl" }
%"struct.std::_Vector_base<void (*)(int, int), std::allocator<void (*)(int, int)>>::_Vector_impl" = type { %"struct.std::_Vector_base<void (*)(int, int), std::allocator<void (*)(int, int)>>::_Vector_impl_data" }
%"struct.std::_Vector_base<void (*)(int, int), std::allocator<void (*)(int, int)>>::_Vector_impl_data" = type { ptr, ptr, ptr }
%"class.std::vector.27" = type { %"struct.std::_Vector_base.28" }
%"struct.std::_Vector_base.28" = type { %"struct.std::_Vector_base<void (*)(const std::vector<int> &), std::allocator<void (*)(const std::vector<int> &)>>::_Vector_impl" }
%"struct.std::_Vector_base<void (*)(const std::vector<int> &), std::allocator<void (*)(const std::vector<int> &)>>::_Vector_impl" = type { %"struct.std::_Vector_base<void (*)(const std::vector<int> &), std::allocator<void (*)(const std::vector<int> &)>>::_Vector_impl_data" }
%"struct.std::_Vector_base<void (*)(const std::vector<int> &), std::allocator<void (*)(const std::vector<int> &)>>::_Vector_impl_data" = type { ptr, ptr, ptr }
%"class.std::vector.32" = type { %"struct.std::_Vector_base.33" }
%"struct.std::_Vector_base.33" = type { %"struct.std::_Vector_base<int (System::*)(), std::allocator<int (System::*)()>>::_Vector_impl" }
%"struct.std::_Vector_base<int (System::*)(), std::allocator<int (System::*)()>>::_Vector_impl" = type { %"struct.std::_Vector_base<int (System::*)(), std::allocator<int (System::*)()>>::_Vector_impl_data" }
%"struct.std::_Vector_base<int (System::*)(), std::allocator<int (System::*)()>>::_Vector_impl_data" = type { ptr, ptr, ptr }
%struct.futureTricks = type { i32, i32, [13 x i32], [13 x i32], [13 x i32], [13 x i32] }
%struct.deal = type { i32, i32, [3 x i32], [3 x i32], [4 x [4 x i32]] }
%struct.boards = type { i32, [200 x %struct.deal], [200 x i32], [200 x i32], [200 x i32] }
%struct.solvedBoards = type { i32, [200 x %struct.futureTricks] }

@param = global %struct.paramType zeroinitializer, align 8
@scheduler = external global %class.Scheduler, align 8
@sysdep = external global %class.System, align 8

; Function Attrs: mustprogress uwtable
define noundef i32 @_Z15SolveAllBoardsNR6boardsR12solvedBoards(ptr noundef nonnull align 4 dereferenceable(21604) %0, ptr noundef nonnull align 4 dereferenceable(43204) %1) #4 {
  %3 = alloca i32, align 4
  %4 = alloca ptr, align 8
  %5 = alloca ptr, align 8
  %6 = alloca i32, align 4
  %7 = alloca i32, align 4
  store ptr %0, ptr %4, align 8
  store ptr %1, ptr %5, align 8
  store i32 0, ptr getelementptr inbounds nuw (%struct.paramType, ptr @param, i32 0, i32 3), align 8
  %8 = load ptr, ptr %4, align 8
  %9 = getelementptr inbounds nuw %struct.boards, ptr %8, i32 0, i32 0
  %10 = load i32, ptr %9, align 4
  %11 = icmp sgt i32 %10, 200
  br i1 %11, label %12, label %13

12:                                               ; preds = %2
  store i32 -101, ptr %3, align 4
  br label %50

13:                                               ; preds = %2
  %14 = load ptr, ptr %4, align 8
  store ptr %14, ptr getelementptr inbounds nuw (%struct.paramType, ptr @param, i32 0, i32 1), align 8
  %15 = load ptr, ptr %5, align 8
  store ptr %15, ptr getelementptr inbounds nuw (%struct.paramType, ptr @param, i32 0, i32 2), align 8
  %16 = load ptr, ptr %4, align 8
  %17 = getelementptr inbounds nuw %struct.boards, ptr %16, i32 0, i32 0
  %18 = load i32, ptr %17, align 4
  store i32 %18, ptr @param, align 8
  %19 = load ptr, ptr %4, align 8
  call void @_ZN9Scheduler11RegisterRunE7RunModeRK6boards(ptr noundef nonnull align 8 dereferenceable(43416) @scheduler, i32 noundef 0, ptr noundef nonnull align 4 dereferenceable(21604) %19)
  %20 = load ptr, ptr %4, align 8
  %21 = call noundef i32 @_ZN6System11RegisterRunE7RunModeRK6boards(ptr noundef nonnull align 8 dereferenceable(200) @sysdep, i32 noundef 0, ptr noundef nonnull align 4 dereferenceable(21604) %20)
  store i32 0, ptr %6, align 4
  br label %22

22:                                               ; preds = %32, %13
  %23 = load i32, ptr %6, align 4
  %24 = icmp slt i32 %23, 200
  br i1 %24, label %25, label %35

25:                                               ; preds = %22
  %26 = load ptr, ptr %5, align 8
  %27 = getelementptr inbounds nuw %struct.solvedBoards, ptr %26, i32 0, i32 1
  %28 = load i32, ptr %6, align 4
  %29 = sext i32 %28 to i64
  %30 = getelementptr inbounds [200 x %struct.futureTricks], ptr %27, i64 0, i64 %29
  %31 = getelementptr inbounds nuw %struct.futureTricks, ptr %30, i32 0, i32 1
  store i32 0, ptr %31, align 4
  br label %32

32:                                               ; preds = %25
  %33 = load i32, ptr %6, align 4
  %34 = add nsw i32 %33, 1
  store i32 %34, ptr %6, align 4
  br label %22, !llvm.loop !7

35:                                               ; preds = %22
  %36 = call noundef i32 @_ZN6System10RunThreadsEv(ptr noundef nonnull align 8 dereferenceable(200) @sysdep)
  store i32 %36, ptr %7, align 4
  %37 = load i32, ptr %7, align 4
  %38 = icmp ne i32 %37, 1
  br i1 %38, label %39, label %41

39:                                               ; preds = %35
  %40 = load i32, ptr %7, align 4
  store i32 %40, ptr %3, align 4
  br label %50

41:                                               ; preds = %35
  %42 = load i32, ptr @param, align 8
  %43 = load ptr, ptr %5, align 8
  %44 = getelementptr inbounds nuw %struct.solvedBoards, ptr %43, i32 0, i32 0
  store i32 %42, ptr %44, align 4
  %45 = load i32, ptr getelementptr inbounds nuw (%struct.paramType, ptr @param, i32 0, i32 3), align 8
  %46 = icmp eq i32 %45, 0
  br i1 %46, label %47, label %48

47:                                               ; preds = %41
  store i32 1, ptr %3, align 4
  br label %50

48:                                               ; preds = %41
  %49 = load i32, ptr getelementptr inbounds nuw (%struct.paramType, ptr @param, i32 0, i32 3), align 8
  store i32 %49, ptr %3, align 4
  br label %50

50:                                               ; preds = %48, %47, %39, %12
  %51 = load i32, ptr %3, align 4
  ret i32 %51
}