; Function Attrs: mustprogress uwtable
define noundef i32 @_Z15SolveAllBoardsNR6boardsR12solvedBoards(ptr noundef nonnull align 4 dereferenceable(21604) %0, ptr noundef nonnull align 4 dereferenceable(43204) %1) local_unnamed_addr #3 {
  store i32 0, ptr getelementptr inbounds nuw (i8, ptr @param, i64 24), align 8
  %3 = load i32, ptr %0, align 4
  %4 = icmp sgt i32 %3, 200
  br i1 %4, label %16, label %5

5:                                                ; preds = %2
  store ptr %0, ptr getelementptr inbounds nuw (i8, ptr @param, i64 8), align 8
  store ptr %1, ptr getelementptr inbounds nuw (i8, ptr @param, i64 16), align 8
  store i32 %3, ptr @param, align 8
  tail call void @_ZN9Scheduler11RegisterRunE7RunModeRK6boards(ptr noundef nonnull align 8 dereferenceable(43416) @scheduler, i32 noundef 0, ptr noundef nonnull align 4 dereferenceable(21604) %0)
  %6 = tail call noundef i32 @_ZN6System11RegisterRunE7RunModeRK6boards(ptr noundef nonnull align 8 dereferenceable(200) @sysdep, i32 noundef 0, ptr noundef nonnull align 4 dereferenceable(21604) %0)
  %7 = getelementptr inbounds nuw i8, ptr %1, i64 8
  br label %8

8:                                                ; preds = %5, %8
  %indvars.iv = phi i64 [ 0, %5 ], [ %indvars.iv.next, %8 ]
  %9 = mul nuw nsw i64 %indvars.iv, 216
  %10 = getelementptr i8, ptr %7, i64 %9
  store i32 0, ptr %10, align 4
  %indvars.iv.next = add nuw nsw i64 %indvars.iv, 1
  %exitcond.not = icmp eq i64 %indvars.iv.next, 200
  br i1 %exitcond.not, label %11, label %8, !llvm.loop !7

11:                                               ; preds = %8
  %12 = tail call noundef i32 @_ZN6System10RunThreadsEv(ptr noundef nonnull align 8 dereferenceable(200) @sysdep)
  %.not = icmp eq i32 %12, 1
  br i1 %.not, label %13, label %16

13:                                               ; preds = %11
  %14 = load i32, ptr @param, align 8
  store i32 %14, ptr %1, align 4
  %15 = load i32, ptr getelementptr inbounds nuw (i8, ptr @param, i64 24), align 8
  %. = tail call i32 @llvm.umax.i32(i32 %15, i32 1)
  br label %16

16:                                               ; preds = %13, %11, %2
  %.0 = phi i32 [ -101, %2 ], [ %12, %11 ], [ %., %13 ]
  ret i32 %.0
}